ARM GAS  C:\Users\Dmitriy\AppData\Local\Temp\cciuurLJ.s 			page 1


   1              		.cpu cortex-m3
   2              		.arch armv7-m
   3              		.fpu softvfp
   4              		.eabi_attribute 20, 1
   5              		.eabi_attribute 21, 1
   6              		.eabi_attribute 23, 3
   7              		.eabi_attribute 24, 1
   8              		.eabi_attribute 25, 1
   9              		.eabi_attribute 26, 1
  10              		.eabi_attribute 30, 1
  11              		.eabi_attribute 34, 1
  12              		.eabi_attribute 18, 4
  13              		.file	"controller.c"
  14              		.text
  15              	.Ltext0:
  16              		.cfi_sections	.debug_frame
  17              		.file 1 "Core/Src/controller.c"
  18              		.section	.text.PI_Controller_Reset,"ax",%progbits
  19              		.align	1
  20              		.global	PI_Controller_Reset
  21              		.syntax unified
  22              		.thumb
  23              		.thumb_func
  25              	PI_Controller_Reset:
  26              	.LVL0:
  27              	.LFB1:
   1:Core/Src/controller.c **** #include "controller.h"
   2:Core/Src/controller.c **** #include <math.h>
   3:Core/Src/controller.c **** 
   4:Core/Src/controller.c **** void PI_Controller_Init(PI_Controller *ctrl, float Kp, float Ki, float Ts,
   5:Core/Src/controller.c ****                        float min_limit, float max_limit)
   6:Core/Src/controller.c **** {
   7:Core/Src/controller.c ****     ctrl->Kp = Kp;
   8:Core/Src/controller.c ****     ctrl->Ki = Ki;
   9:Core/Src/controller.c ****     ctrl->Ts = Ts;
  10:Core/Src/controller.c ****     ctrl->min_limit = min_limit;
  11:Core/Src/controller.c ****     ctrl->max_limit = max_limit;
  12:Core/Src/controller.c ****     
  13:Core/Src/controller.c ****     PI_Controller_Reset(ctrl);
  14:Core/Src/controller.c **** }
  15:Core/Src/controller.c **** 
  16:Core/Src/controller.c **** void PI_Controller_Reset(PI_Controller *ctrl)
  17:Core/Src/controller.c **** {
  28              		.loc 1 17 1 view -0
  29              		.cfi_startproc
  30              		@ args = 0, pretend = 0, frame = 0
  31              		@ frame_needed = 0, uses_anonymous_args = 0
  32              		@ link register save eliminated.
  18:Core/Src/controller.c ****     ctrl->integral = 0.0f;
  33              		.loc 1 18 5 view .LVU1
  34              		.loc 1 18 20 is_stmt 0 view .LVU2
  35 0000 0023     		movs	r3, #0
  36 0002 C360     		str	r3, [r0, #12]	@ float
  19:Core/Src/controller.c ****     ctrl->integral_prev = 0.0f;
  37              		.loc 1 19 5 is_stmt 1 view .LVU3
  38              		.loc 1 19 25 is_stmt 0 view .LVU4
  39 0004 0361     		str	r3, [r0, #16]	@ float
ARM GAS  C:\Users\Dmitriy\AppData\Local\Temp\cciuurLJ.s 			page 2


  20:Core/Src/controller.c ****     ctrl->output = 0.0f;
  40              		.loc 1 20 5 is_stmt 1 view .LVU5
  41              		.loc 1 20 18 is_stmt 0 view .LVU6
  42 0006 C361     		str	r3, [r0, #28]	@ float
  21:Core/Src/controller.c ****     ctrl->error = 0.0f;
  43              		.loc 1 21 5 is_stmt 1 view .LVU7
  44              		.loc 1 21 17 is_stmt 0 view .LVU8
  45 0008 0362     		str	r3, [r0, #32]	@ float
  22:Core/Src/controller.c **** }
  46              		.loc 1 22 1 view .LVU9
  47 000a 7047     		bx	lr
  48              		.cfi_endproc
  49              	.LFE1:
  51              		.section	.text.PI_Controller_Init,"ax",%progbits
  52              		.align	1
  53              		.global	PI_Controller_Init
  54              		.syntax unified
  55              		.thumb
  56              		.thumb_func
  58              	PI_Controller_Init:
  59              	.LVL1:
  60              	.LFB0:
   6:Core/Src/controller.c ****     ctrl->Kp = Kp;
  61              		.loc 1 6 1 is_stmt 1 view -0
  62              		.cfi_startproc
  63              		@ args = 8, pretend = 0, frame = 0
  64              		@ frame_needed = 0, uses_anonymous_args = 0
   6:Core/Src/controller.c ****     ctrl->Kp = Kp;
  65              		.loc 1 6 1 is_stmt 0 view .LVU11
  66 0000 08B5     		push	{r3, lr}
  67              	.LCFI0:
  68              		.cfi_def_cfa_offset 8
  69              		.cfi_offset 3, -8
  70              		.cfi_offset 14, -4
   7:Core/Src/controller.c ****     ctrl->Ki = Ki;
  71              		.loc 1 7 5 is_stmt 1 view .LVU12
   7:Core/Src/controller.c ****     ctrl->Ki = Ki;
  72              		.loc 1 7 14 is_stmt 0 view .LVU13
  73 0002 0160     		str	r1, [r0]	@ float
   8:Core/Src/controller.c ****     ctrl->Ts = Ts;
  74              		.loc 1 8 5 is_stmt 1 view .LVU14
   8:Core/Src/controller.c ****     ctrl->Ts = Ts;
  75              		.loc 1 8 14 is_stmt 0 view .LVU15
  76 0004 4260     		str	r2, [r0, #4]	@ float
   9:Core/Src/controller.c ****     ctrl->min_limit = min_limit;
  77              		.loc 1 9 5 is_stmt 1 view .LVU16
   9:Core/Src/controller.c ****     ctrl->min_limit = min_limit;
  78              		.loc 1 9 14 is_stmt 0 view .LVU17
  79 0006 8360     		str	r3, [r0, #8]	@ float
  10:Core/Src/controller.c ****     ctrl->max_limit = max_limit;
  80              		.loc 1 10 5 is_stmt 1 view .LVU18
  10:Core/Src/controller.c ****     ctrl->max_limit = max_limit;
  81              		.loc 1 10 21 is_stmt 0 view .LVU19
  82 0008 029B     		ldr	r3, [sp, #8]	@ float
  83              	.LVL2:
  10:Core/Src/controller.c ****     ctrl->max_limit = max_limit;
  84              		.loc 1 10 21 view .LVU20
ARM GAS  C:\Users\Dmitriy\AppData\Local\Temp\cciuurLJ.s 			page 3


  85 000a 8361     		str	r3, [r0, #24]	@ float
  11:Core/Src/controller.c ****     
  86              		.loc 1 11 5 is_stmt 1 view .LVU21
  11:Core/Src/controller.c ****     
  87              		.loc 1 11 21 is_stmt 0 view .LVU22
  88 000c 039B     		ldr	r3, [sp, #12]	@ float
  89 000e 4361     		str	r3, [r0, #20]	@ float
  13:Core/Src/controller.c **** }
  90              		.loc 1 13 5 is_stmt 1 view .LVU23
  91 0010 FFF7FEFF 		bl	PI_Controller_Reset
  92              	.LVL3:
  14:Core/Src/controller.c **** 
  93              		.loc 1 14 1 is_stmt 0 view .LVU24
  94 0014 08BD     		pop	{r3, pc}
  14:Core/Src/controller.c **** 
  95              		.loc 1 14 1 view .LVU25
  96              		.cfi_endproc
  97              	.LFE0:
  99              		.global	__aeabi_fsub
 100              		.global	__aeabi_fmul
 101              		.global	__aeabi_fadd
 102              		.global	__aeabi_fcmplt
 103              		.global	__aeabi_fcmpgt
 104              		.section	.text.PI_Controller_Update,"ax",%progbits
 105              		.align	1
 106              		.global	PI_Controller_Update
 107              		.syntax unified
 108              		.thumb
 109              		.thumb_func
 111              	PI_Controller_Update:
 112              	.LVL4:
 113              	.LFB2:
  23:Core/Src/controller.c **** 
  24:Core/Src/controller.c **** float PI_Controller_Update(PI_Controller *ctrl, float setpoint, float feedback)
  25:Core/Src/controller.c **** {
 114              		.loc 1 25 1 is_stmt 1 view -0
 115              		.cfi_startproc
 116              		@ args = 0, pretend = 0, frame = 0
 117              		@ frame_needed = 0, uses_anonymous_args = 0
 118              		.loc 1 25 1 is_stmt 0 view .LVU27
 119 0000 F8B5     		push	{r3, r4, r5, r6, r7, lr}
 120              	.LCFI1:
 121              		.cfi_def_cfa_offset 24
 122              		.cfi_offset 3, -24
 123              		.cfi_offset 4, -20
 124              		.cfi_offset 5, -16
 125              		.cfi_offset 6, -12
 126              		.cfi_offset 7, -8
 127              		.cfi_offset 14, -4
 128 0002 0446     		mov	r4, r0
 129 0004 0846     		mov	r0, r1
 130              	.LVL5:
  26:Core/Src/controller.c ****     // Вычисление ошибки
  27:Core/Src/controller.c ****     ctrl->error = setpoint - feedback;
 131              		.loc 1 27 5 is_stmt 1 view .LVU28
 132              		.loc 1 27 28 is_stmt 0 view .LVU29
 133 0006 1146     		mov	r1, r2
ARM GAS  C:\Users\Dmitriy\AppData\Local\Temp\cciuurLJ.s 			page 4


 134              	.LVL6:
 135              		.loc 1 27 28 view .LVU30
 136 0008 FFF7FEFF 		bl	__aeabi_fsub
 137              	.LVL7:
 138              		.loc 1 27 28 view .LVU31
 139 000c 0546     		mov	r5, r0
 140              		.loc 1 27 17 view .LVU32
 141 000e 2062     		str	r0, [r4, #32]	@ float
  28:Core/Src/controller.c ****     
  29:Core/Src/controller.c ****     // Пропорциональная составляющая
  30:Core/Src/controller.c ****     float proportional = ctrl->Kp * ctrl->error;
 142              		.loc 1 30 5 is_stmt 1 view .LVU33
 143              		.loc 1 30 11 is_stmt 0 view .LVU34
 144 0010 2168     		ldr	r1, [r4]	@ float
 145 0012 FFF7FEFF 		bl	__aeabi_fmul
 146              	.LVL8:
 147 0016 0646     		mov	r6, r0
 148              	.LVL9:
  31:Core/Src/controller.c ****     
  32:Core/Src/controller.c ****     // Интегральная составляющая (с антивиндупом)
  33:Core/Src/controller.c ****     float integral_temp = ctrl->integral_prev + ctrl->Ki * ctrl->error * ctrl->Ts;
 149              		.loc 1 33 5 is_stmt 1 view .LVU35
 150              		.loc 1 33 31 is_stmt 0 view .LVU36
 151 0018 2769     		ldr	r7, [r4, #16]	@ float
 152              		.loc 1 33 58 view .LVU37
 153 001a 6168     		ldr	r1, [r4, #4]	@ float
 154 001c 2846     		mov	r0, r5
 155              	.LVL10:
 156              		.loc 1 33 58 view .LVU38
 157 001e FFF7FEFF 		bl	__aeabi_fmul
 158              	.LVL11:
 159              		.loc 1 33 72 view .LVU39
 160 0022 A168     		ldr	r1, [r4, #8]	@ float
 161 0024 FFF7FEFF 		bl	__aeabi_fmul
 162              	.LVL12:
 163 0028 0146     		mov	r1, r0
 164              		.loc 1 33 11 view .LVU40
 165 002a 3846     		mov	r0, r7
 166 002c FFF7FEFF 		bl	__aeabi_fadd
 167              	.LVL13:
 168 0030 0546     		mov	r5, r0
 169              	.LVL14:
  34:Core/Src/controller.c ****     
  35:Core/Src/controller.c ****     // Ограничение интегральной составляющей
  36:Core/Src/controller.c ****     if (integral_temp > ctrl->max_limit) {
 170              		.loc 1 36 5 is_stmt 1 view .LVU41
 171              		.loc 1 36 29 is_stmt 0 view .LVU42
 172 0032 6769     		ldr	r7, [r4, #20]	@ float
 173              		.loc 1 36 8 view .LVU43
 174 0034 0146     		mov	r1, r0
 175 0036 3846     		mov	r0, r7
 176              	.LVL15:
 177              		.loc 1 36 8 view .LVU44
 178 0038 FFF7FEFF 		bl	__aeabi_fcmplt
 179              	.LVL16:
 180              		.loc 1 36 8 view .LVU45
 181 003c 38B1     		cbz	r0, .L12
ARM GAS  C:\Users\Dmitriy\AppData\Local\Temp\cciuurLJ.s 			page 5


  37:Core/Src/controller.c ****         ctrl->integral = ctrl->max_limit;
 182              		.loc 1 37 9 is_stmt 1 view .LVU46
 183              		.loc 1 37 24 is_stmt 0 view .LVU47
 184 003e E760     		str	r7, [r4, #12]	@ float
 185              	.L7:
  38:Core/Src/controller.c ****     } else if (integral_temp < ctrl->min_limit) {
  39:Core/Src/controller.c ****         ctrl->integral = ctrl->min_limit;
  40:Core/Src/controller.c ****     } else {
  41:Core/Src/controller.c ****         ctrl->integral = integral_temp;
  42:Core/Src/controller.c ****     }
  43:Core/Src/controller.c ****     
  44:Core/Src/controller.c ****     // Сохранение для следующего шага
  45:Core/Src/controller.c ****     ctrl->integral_prev = ctrl->integral;
 186              		.loc 1 45 5 is_stmt 1 view .LVU48
 187              		.loc 1 45 31 is_stmt 0 view .LVU49
 188 0040 E068     		ldr	r0, [r4, #12]	@ float
 189              		.loc 1 45 25 view .LVU50
 190 0042 2061     		str	r0, [r4, #16]	@ float
  46:Core/Src/controller.c ****     
  47:Core/Src/controller.c ****     // Выход регулятора
  48:Core/Src/controller.c ****     ctrl->output = proportional + ctrl->integral;
 191              		.loc 1 48 5 is_stmt 1 view .LVU51
 192              		.loc 1 48 33 is_stmt 0 view .LVU52
 193 0044 3146     		mov	r1, r6
 194 0046 FFF7FEFF 		bl	__aeabi_fadd
 195              	.LVL17:
 196              		.loc 1 48 18 view .LVU53
 197 004a E061     		str	r0, [r4, #28]	@ float
  49:Core/Src/controller.c ****     
  50:Core/Src/controller.c ****     return ctrl->output;
 198              		.loc 1 50 5 is_stmt 1 view .LVU54
  51:Core/Src/controller.c **** }
 199              		.loc 1 51 1 is_stmt 0 view .LVU55
 200 004c F8BD     		pop	{r3, r4, r5, r6, r7, pc}
 201              	.LVL18:
 202              	.L12:
  38:Core/Src/controller.c ****         ctrl->integral = ctrl->min_limit;
 203              		.loc 1 38 12 is_stmt 1 view .LVU56
  38:Core/Src/controller.c ****         ctrl->integral = ctrl->min_limit;
 204              		.loc 1 38 36 is_stmt 0 view .LVU57
 205 004e A769     		ldr	r7, [r4, #24]	@ float
  38:Core/Src/controller.c ****         ctrl->integral = ctrl->min_limit;
 206              		.loc 1 38 15 view .LVU58
 207 0050 2946     		mov	r1, r5
 208 0052 3846     		mov	r0, r7
 209 0054 FFF7FEFF 		bl	__aeabi_fcmpgt
 210              	.LVL19:
 211 0058 08B1     		cbz	r0, .L13
  39:Core/Src/controller.c ****     } else {
 212              		.loc 1 39 9 is_stmt 1 view .LVU59
  39:Core/Src/controller.c ****     } else {
 213              		.loc 1 39 24 is_stmt 0 view .LVU60
 214 005a E760     		str	r7, [r4, #12]	@ float
 215 005c F0E7     		b	.L7
 216              	.L13:
  41:Core/Src/controller.c ****     }
 217              		.loc 1 41 9 is_stmt 1 view .LVU61
ARM GAS  C:\Users\Dmitriy\AppData\Local\Temp\cciuurLJ.s 			page 6


  41:Core/Src/controller.c ****     }
 218              		.loc 1 41 24 is_stmt 0 view .LVU62
 219 005e E560     		str	r5, [r4, #12]	@ float
 220 0060 EEE7     		b	.L7
 221              		.cfi_endproc
 222              	.LFE2:
 224              		.section	.text.PI_Controller_SetParams,"ax",%progbits
 225              		.align	1
 226              		.global	PI_Controller_SetParams
 227              		.syntax unified
 228              		.thumb
 229              		.thumb_func
 231              	PI_Controller_SetParams:
 232              	.LVL20:
 233              	.LFB3:
  52:Core/Src/controller.c **** 
  53:Core/Src/controller.c **** void PI_Controller_SetParams(PI_Controller *ctrl, float Kp, float Ki)
  54:Core/Src/controller.c **** {
 234              		.loc 1 54 1 is_stmt 1 view -0
 235              		.cfi_startproc
 236              		@ args = 0, pretend = 0, frame = 0
 237              		@ frame_needed = 0, uses_anonymous_args = 0
 238              		@ link register save eliminated.
  55:Core/Src/controller.c ****     ctrl->Kp = Kp;
 239              		.loc 1 55 5 view .LVU64
 240              		.loc 1 55 14 is_stmt 0 view .LVU65
 241 0000 0160     		str	r1, [r0]	@ float
  56:Core/Src/controller.c ****     ctrl->Ki = Ki;
 242              		.loc 1 56 5 is_stmt 1 view .LVU66
 243              		.loc 1 56 14 is_stmt 0 view .LVU67
 244 0002 4260     		str	r2, [r0, #4]	@ float
  57:Core/Src/controller.c **** }...
 245              		.loc 1 57 1 view .LVU68
 246 0004 7047     		bx	lr
 247              		.cfi_endproc
 248              	.LFE3:
 250              		.text
 251              	.Letext0:
 252              		.file 2 "Core/Inc/controller.h"
ARM GAS  C:\Users\Dmitriy\AppData\Local\Temp\cciuurLJ.s 			page 7

